target datalayout = "e-m:e-p270:32:32-p271:32:32-p272:64:64-i64:64-i128:128-f80:128-n8:16:32:64-S128"
target triple = "x86_64-pc-linux-gnu"

%struct.mempool_s = type { i64, i64, i64, i64, i8, ptr, ptr, ptr, ptr, %struct.sq_queue_s, %struct.sq_queue_s, %struct.sq_queue_s, i64, i8, %struct.sem_s, %struct.mempool_procfs_entry_s }
%struct.sq_queue_s = type { ptr, ptr }
%struct.sem_s = type { i16, i8, %struct.dq_queue_s, ptr }
%struct.dq_queue_s = type { ptr, ptr }
%struct.mempool_procfs_entry_s = type { ptr, ptr }
%struct.sq_entry_s = type { ptr }

; Function Attrs: nounwind uwtable
define internal void @up_irq_enable() #0 {
  call void asm sideeffect "sti", "~{memory},~{dirflag},~{fpsr},~{flags}"() #3, !srcloc !14
  ret void
}

; Function Attrs: nounwind uwtable
define internal zeroext i1 @up_irq_enabled(i64 noundef %0) #0 {
  %2 = alloca i64, align 8
  store i64 %0, ptr %2, align 8
  %3 = load i64, ptr %2, align 8
  %4 = and i64 %3, 512
  %5 = icmp ne i64 %4, 0
  ret i1 %5
}

; Function Attrs: nounwind uwtable
define internal void @up_irq_disable() #0 {
  call void asm sideeffect "cli", "~{memory},~{dirflag},~{fpsr},~{flags}"() #3, !srcloc !12
  ret void
}

; Function Attrs: nounwind uwtable
define internal i64 @irqflags() #0 {
  %1 = alloca i64, align 8
  call void asm sideeffect "\09pushfq\0A\09popq $0\0A", "=*rm,~{memory},~{dirflag},~{fpsr},~{flags}"(ptr elementtype(i64) %1) #3, !srcloc !13
  %2 = load i64, ptr %1, align 8
  ret i64 %2
}

; Function Attrs: nounwind uwtable
define internal void @up_irq_restore(i64 noundef %0) #0 {
  %2 = alloca i64, align 8
  store i64 %0, ptr %2, align 8
  %3 = load i64, ptr %2, align 8
  %4 = call zeroext i1 @up_irq_enabled(i64 noundef %3)
  br i1 %4, label %5, label %6

5:                                                ; preds = %1
  call void @up_irq_enable()
  br label %6

6:                                                ; preds = %5, %1
  ret void
}

; Function Attrs: nounwind uwtable
define internal i64 @up_irq_save() #0 {
  %1 = alloca i64, align 8
  %2 = call i64 @irqflags()
  store i64 %2, ptr %1, align 8
  call void @up_irq_disable()
  %3 = load i64, ptr %1, align 8
  ret i64 %3
}

; Function Attrs: nounwind uwtable
define void @mempool_free(ptr noundef %0, ptr noundef %1) #0 {
  %3 = alloca ptr, align 8
  %4 = alloca ptr, align 8
  %5 = alloca i64, align 8
  %6 = alloca i64, align 8
  %7 = alloca ptr, align 8
  %8 = alloca ptr, align 8
  %9 = alloca ptr, align 8
  %10 = alloca i32, align 4
  store ptr %0, ptr %3, align 8
  store ptr %1, ptr %4, align 8
  %11 = call i64 @up_irq_save()
  store i64 %11, ptr %5, align 8
  %12 = load ptr, ptr %3, align 8
  %13 = getelementptr inbounds %struct.mempool_s, ptr %12, i32 0, i32 0
  %14 = load i64, ptr %13, align 8
  store i64 %14, ptr %6, align 8
  %15 = load ptr, ptr %3, align 8
  %16 = getelementptr inbounds %struct.mempool_s, ptr %15, i32 0, i32 12
  %17 = load i64, ptr %16, align 8
  %18 = add i64 %17, -1
  store i64 %18, ptr %16, align 8
  %19 = load ptr, ptr %3, align 8
  %20 = getelementptr inbounds %struct.mempool_s, ptr %19, i32 0, i32 2
  %21 = load i64, ptr %20, align 8
  %22 = load i64, ptr %6, align 8
  %23 = icmp ugt i64 %21, %22
  br i1 %23, label %24, label %94

24:                                               ; preds = %2
  %25 = load ptr, ptr %4, align 8
  %26 = load ptr, ptr %3, align 8
  %27 = getelementptr inbounds %struct.mempool_s, ptr %26, i32 0, i32 8
  %28 = load ptr, ptr %27, align 8
  %29 = icmp uge ptr %25, %28
  br i1 %29, label %30, label %68

30:                                               ; preds = %24
  %31 = load ptr, ptr %4, align 8
  %32 = load ptr, ptr %3, align 8
  %33 = getelementptr inbounds %struct.mempool_s, ptr %32, i32 0, i32 8
  %34 = load ptr, ptr %33, align 8
  %35 = load ptr, ptr %3, align 8
  %36 = getelementptr inbounds %struct.mempool_s, ptr %35, i32 0, i32 2
  %37 = load i64, ptr %36, align 8
  %38 = getelementptr inbounds i8, ptr %34, i64 %37
  %39 = load i64, ptr %6, align 8
  %40 = sub i64 0, %39
  %41 = getelementptr inbounds i8, ptr %38, i64 %40
  %42 = icmp ult ptr %31, %41
  br i1 %42, label %43, label %68

43:                                               ; preds = %30
  br label %44

44:                                               ; preds = %43
  %45 = load ptr, ptr %4, align 8
  store ptr %45, ptr %7, align 8
  %46 = load ptr, ptr %3, align 8
  %47 = getelementptr inbounds %struct.mempool_s, ptr %46, i32 0, i32 10
  %48 = getelementptr inbounds %struct.sq_queue_s, ptr %47, i32 0, i32 0
  %49 = load ptr, ptr %48, align 8
  %50 = load ptr, ptr %7, align 8
  %51 = getelementptr inbounds %struct.sq_entry_s, ptr %50, i32 0, i32 0
  store ptr %49, ptr %51, align 8
  %52 = load ptr, ptr %3, align 8
  %53 = getelementptr inbounds %struct.mempool_s, ptr %52, i32 0, i32 10
  %54 = getelementptr inbounds %struct.sq_queue_s, ptr %53, i32 0, i32 0
  %55 = load ptr, ptr %54, align 8
  %56 = icmp ne ptr %55, null
  br i1 %56, label %62, label %57

57:                                               ; preds = %44
  %58 = load ptr, ptr %7, align 8
  %59 = load ptr, ptr %3, align 8
  %60 = getelementptr inbounds %struct.mempool_s, ptr %59, i32 0, i32 10
  %61 = getelementptr inbounds %struct.sq_queue_s, ptr %60, i32 0, i32 1
  store ptr %58, ptr %61, align 8
  br label %62

62:                                               ; preds = %57, %44
  %63 = load ptr, ptr %7, align 8
  %64 = load ptr, ptr %3, align 8
  %65 = getelementptr inbounds %struct.mempool_s, ptr %64, i32 0, i32 10
  %66 = getelementptr inbounds %struct.sq_queue_s, ptr %65, i32 0, i32 0
  store ptr %63, ptr %66, align 8
  br label %67

67:                                               ; preds = %62
  br label %93

68:                                               ; preds = %30, %24
  br label %69

69:                                               ; preds = %68
  %70 = load ptr, ptr %4, align 8
  store ptr %70, ptr %8, align 8
  %71 = load ptr, ptr %3, align 8
  %72 = getelementptr inbounds %struct.mempool_s, ptr %71, i32 0, i32 9
  %73 = getelementptr inbounds %struct.sq_queue_s, ptr %72, i32 0, i32 0
  %74 = load ptr, ptr %73, align 8
  %75 = load ptr, ptr %8, align 8
  %76 = getelementptr inbounds %struct.sq_entry_s, ptr %75, i32 0, i32 0
  store ptr %74, ptr %76, align 8
  %77 = load ptr, ptr %3, align 8
  %78 = getelementptr inbounds %struct.mempool_s, ptr %77, i32 0, i32 9
  %79 = getelementptr inbounds %struct.sq_queue_s, ptr %78, i32 0, i32 0
  %80 = load ptr, ptr %79, align 8
  %81 = icmp ne ptr %80, null
  br i1 %81, label %87, label %82

82:                                               ; preds = %69
  %83 = load ptr, ptr %8, align 8
  %84 = load ptr, ptr %3, align 8
  %85 = getelementptr inbounds %struct.mempool_s, ptr %84, i32 0, i32 9
  %86 = getelementptr inbounds %struct.sq_queue_s, ptr %85, i32 0, i32 1
  store ptr %83, ptr %86, align 8
  br label %87

87:                                               ; preds = %82, %69
  %88 = load ptr, ptr %8, align 8
  %89 = load ptr, ptr %3, align 8
  %90 = getelementptr inbounds %struct.mempool_s, ptr %89, i32 0, i32 9
  %91 = getelementptr inbounds %struct.sq_queue_s, ptr %90, i32 0, i32 0
  store ptr %88, ptr %91, align 8
  br label %92

92:                                               ; preds = %87
  br label %93

93:                                               ; preds = %92, %67
  br label %119

94:                                               ; preds = %2
  br label %95

95:                                               ; preds = %94
  %96 = load ptr, ptr %4, align 8
  store ptr %96, ptr %9, align 8
  %97 = load ptr, ptr %3, align 8
  %98 = getelementptr inbounds %struct.mempool_s, ptr %97, i32 0, i32 9
  %99 = getelementptr inbounds %struct.sq_queue_s, ptr %98, i32 0, i32 0
  %100 = load ptr, ptr %99, align 8
  %101 = load ptr, ptr %9, align 8
  %102 = getelementptr inbounds %struct.sq_entry_s, ptr %101, i32 0, i32 0
  store ptr %100, ptr %102, align 8
  %103 = load ptr, ptr %3, align 8
  %104 = getelementptr inbounds %struct.mempool_s, ptr %103, i32 0, i32 9
  %105 = getelementptr inbounds %struct.sq_queue_s, ptr %104, i32 0, i32 0
  %106 = load ptr, ptr %105, align 8
  %107 = icmp ne ptr %106, null
  br i1 %107, label %113, label %108

108:                                              ; preds = %95
  %109 = load ptr, ptr %9, align 8
  %110 = load ptr, ptr %3, align 8
  %111 = getelementptr inbounds %struct.mempool_s, ptr %110, i32 0, i32 9
  %112 = getelementptr inbounds %struct.sq_queue_s, ptr %111, i32 0, i32 1
  store ptr %109, ptr %112, align 8
  br label %113

113:                                              ; preds = %108, %95
  %114 = load ptr, ptr %9, align 8
  %115 = load ptr, ptr %3, align 8
  %116 = getelementptr inbounds %struct.mempool_s, ptr %115, i32 0, i32 9
  %117 = getelementptr inbounds %struct.sq_queue_s, ptr %116, i32 0, i32 0
  store ptr %114, ptr %117, align 8
  br label %118

118:                                              ; preds = %113
  br label %119

119:                                              ; preds = %118, %93
  %120 = load i64, ptr %5, align 8
  call void @up_irq_restore(i64 noundef %120)
  %121 = load ptr, ptr %3, align 8
  %122 = getelementptr inbounds %struct.mempool_s, ptr %121, i32 0, i32 4
  %123 = load i8, ptr %122, align 8
  %124 = trunc i8 %123 to i1
  br i1 %124, label %125, label %141

125:                                              ; preds = %119
  %126 = load ptr, ptr %3, align 8
  %127 = getelementptr inbounds %struct.mempool_s, ptr %126, i32 0, i32 3
  %128 = load i64, ptr %127, align 8
  %129 = icmp eq i64 %128, 0
  br i1 %129, label %130, label %141

130:                                              ; preds = %125
  %131 = load ptr, ptr %3, align 8
  %132 = getelementptr inbounds %struct.mempool_s, ptr %131, i32 0, i32 14
  %133 = call i32 @nxsem_get_value(ptr noundef %132, ptr noundef %10)
  %134 = load i32, ptr %10, align 4
  %135 = icmp slt i32 %134, 1
  br i1 %135, label %136, label %140

136:                                              ; preds = %130
  %137 = load ptr, ptr %3, align 8
  %138 = getelementptr inbounds %struct.mempool_s, ptr %137, i32 0, i32 14
  %139 = call i32 @nxsem_post(ptr noundef %138)
  br label %140

140:                                              ; preds = %136, %130
  br label %141

141:                                              ; preds = %140, %125, %119
  ret void
}