; Function Attrs: nounwind uwtable
define void @mempool_free(ptr noundef %0, ptr noundef %1) local_unnamed_addr #0 {
  %3 = alloca i64, align 8
  %4 = alloca i32, align 4
  call void @llvm.lifetime.start.p0(i64 8, ptr nonnull %3)
  call void asm sideeffect "\09pushfq\0A\09popq $0\0A", "=*rm,~{memory},~{dirflag},~{fpsr},~{flags}"(ptr nonnull elementtype(i64) %3) #4, !srcloc !8
  %5 = load i64, ptr %3, align 8
  call void @llvm.lifetime.end.p0(i64 8, ptr nonnull %3)
  call void asm sideeffect "cli", "~{memory},~{dirflag},~{fpsr},~{flags}"() #4, !srcloc !9
  %6 = load i64, ptr %0, align 8
  %7 = getelementptr inbounds nuw i8, ptr %0, i64 120
  %8 = load i64, ptr %7, align 8
  %9 = add i64 %8, -1
  store i64 %9, ptr %7, align 8
  %10 = getelementptr inbounds nuw i8, ptr %0, i64 16
  %11 = load i64, ptr %10, align 8
  %12 = icmp ugt i64 %11, %6
  br i1 %12, label %13, label %32

13:                                               ; preds = %2
  %14 = getelementptr inbounds nuw i8, ptr %0, i64 64
  %15 = load ptr, ptr %14, align 8
  %.not41 = icmp uge ptr %1, %15
  %16 = getelementptr inbounds i8, ptr %15, i64 %11
  %17 = sub i64 0, %6
  %18 = getelementptr inbounds i8, ptr %16, i64 %17
  %19 = icmp ult ptr %1, %18
  %or.cond = select i1 %.not41, i1 %19, i1 false
  br i1 %or.cond, label %20, label %26

20:                                               ; preds = %13
  %21 = getelementptr inbounds nuw i8, ptr %0, i64 88
  %22 = load ptr, ptr %21, align 8
  store ptr %22, ptr %1, align 8
  %.not43 = icmp eq ptr %22, null
  br i1 %.not43, label %23, label %25

23:                                               ; preds = %20
  %24 = getelementptr inbounds nuw i8, ptr %0, i64 96
  store ptr %1, ptr %24, align 8
  br label %25

25:                                               ; preds = %23, %20
  store ptr %1, ptr %21, align 8
  br label %38

26:                                               ; preds = %13
  %27 = getelementptr inbounds nuw i8, ptr %0, i64 72
  %28 = load ptr, ptr %27, align 8
  store ptr %28, ptr %1, align 8
  %.not42 = icmp eq ptr %28, null
  br i1 %.not42, label %29, label %31

29:                                               ; preds = %26
  %30 = getelementptr inbounds nuw i8, ptr %0, i64 80
  store ptr %1, ptr %30, align 8
  br label %31

31:                                               ; preds = %29, %26
  store ptr %1, ptr %27, align 8
  br label %38

32:                                               ; preds = %2
  %33 = getelementptr inbounds nuw i8, ptr %0, i64 72
  %34 = load ptr, ptr %33, align 8
  store ptr %34, ptr %1, align 8
  %.not = icmp eq ptr %34, null
  br i1 %.not, label %35, label %37

35:                                               ; preds = %32
  %36 = getelementptr inbounds nuw i8, ptr %0, i64 80
  store ptr %1, ptr %36, align 8
  br label %37

37:                                               ; preds = %35, %32
  store ptr %1, ptr %33, align 8
  br label %38

38:                                               ; preds = %25, %31, %37
  %39 = and i64 %5, 512
  %.not.i = icmp eq i64 %39, 0
  br i1 %.not.i, label %up_irq_restore.exit, label %40

40:                                               ; preds = %38
  call void asm sideeffect "sti", "~{memory},~{dirflag},~{fpsr},~{flags}"() #4, !srcloc !10
  br label %up_irq_restore.exit

up_irq_restore.exit:                              ; preds = %38, %40
  %41 = getelementptr inbounds nuw i8, ptr %0, i64 32
  %42 = load i8, ptr %41, align 8
  %43 = trunc i8 %42 to i1
  br i1 %43, label %44, label %55

44:                                               ; preds = %up_irq_restore.exit
  %45 = getelementptr inbounds nuw i8, ptr %0, i64 24
  %46 = load i64, ptr %45, align 8
  %47 = icmp eq i64 %46, 0
  br i1 %47, label %48, label %55

48:                                               ; preds = %44
  %49 = getelementptr inbounds nuw i8, ptr %0, i64 136
  %50 = call i32 @nxsem_get_value(ptr noundef nonnull %49, ptr noundef nonnull %4) #4
  %51 = load i32, ptr %4, align 4
  %52 = icmp slt i32 %51, 1
  br i1 %52, label %53, label %55

53:                                               ; preds = %48
  %54 = call i32 @nxsem_post(ptr noundef nonnull %49) #4
  br label %55

55:                                               ; preds = %48, %53, %44, %up_irq_restore.exit
  ret void
}